target datalayout = "e-m:e-p270:32:32-p271:32:32-p272:64:64-i64:64-i128:128-f80:128-n8:16:32:64-S128"
target triple = "x86_64-pc-linux-gnu"

; Function Attrs: inlinehint nounwind uwtable
define internal void @lv_obj_set_style_transform_scale(ptr noundef %0, i32 noundef %1, i32 noundef %2) #4 {
  %4 = alloca ptr, align 8
  %5 = alloca i32, align 4
  %6 = alloca i32, align 4
  store ptr %0, ptr %4, align 8, !tbaa !8
  store i32 %1, ptr %5, align 4, !tbaa !3
  store i32 %2, ptr %6, align 4, !tbaa !3
  %7 = load ptr, ptr %4, align 8, !tbaa !8
  %8 = load i32, ptr %5, align 4, !tbaa !3
  %9 = load i32, ptr %6, align 4, !tbaa !3
  call void @lv_obj_set_style_transform_scale_x(ptr noundef %7, i32 noundef %8, i32 noundef %9)
  %10 = load ptr, ptr %4, align 8, !tbaa !8
  %11 = load i32, ptr %5, align 4, !tbaa !3
  %12 = load i32, ptr %6, align 4, !tbaa !3
  call void @lv_obj_set_style_transform_scale_y(ptr noundef %10, i32 noundef %11, i32 noundef %12)
  ret void
}

; Function Attrs: nounwind uwtable
define internal void @layer_core_cb(ptr noundef %0, i32 noundef %1) #0 {
  %3 = alloca ptr, align 8
  %4 = alloca i32, align 4
  %5 = alloca i32, align 4
  %6 = alloca i32, align 4
  %7 = alloca ptr, align 8
  store ptr %0, ptr %3, align 8, !tbaa !8
  store i32 %1, ptr %4, align 4, !tbaa !3
  call void @llvm.lifetime.start.p0(i64 4, ptr %5) #5
  store i32 0, ptr %5, align 4, !tbaa !3
  br label %8

8:                                                ; preds = %105, %2
  %9 = load i32, ptr %5, align 4, !tbaa !3
  %10 = icmp ult i32 %9, 2
  br i1 %10, label %11, label %108

11:                                               ; preds = %8
  call void @llvm.lifetime.start.p0(i64 4, ptr %6) #5
  %12 = load i32, ptr %5, align 4, !tbaa !3
  %13 = mul i32 4, %12
  store i32 %13, ptr %6, align 4, !tbaa !3
  call void @llvm.lifetime.start.p0(i64 8, ptr %7) #5
  %14 = load ptr, ptr %3, align 8, !tbaa !8
  %15 = load i32, ptr %6, align 4, !tbaa !3
  %16 = load i32, ptr %4, align 4, !tbaa !3
  %17 = call ptr @layer_obj_create(ptr noundef %14, i32 noundef 0, i32 noundef %15, i32 noundef %16)
  store ptr %17, ptr %7, align 8, !tbaa !8
  %18 = load ptr, ptr %7, align 8, !tbaa !8
  %19 = load i32, ptr %5, align 4, !tbaa !3
  %20 = mul i32 8, %19
  call void @lv_obj_set_style_radius(ptr noundef %18, i32 noundef %20, i32 noundef 0)
  %21 = load ptr, ptr %3, align 8, !tbaa !8
  %22 = load i32, ptr %6, align 4, !tbaa !3
  %23 = load i32, ptr %4, align 4, !tbaa !3
  %24 = call ptr @layer_obj_create(ptr noundef %21, i32 noundef 1, i32 noundef %22, i32 noundef %23)
  store ptr %24, ptr %7, align 8, !tbaa !8
  %25 = load ptr, ptr %7, align 8, !tbaa !8
  call void @lv_obj_set_style_transform_rotation(ptr noundef %25, i32 noundef 300, i32 noundef 0)
  %26 = load ptr, ptr %7, align 8, !tbaa !8
  call void @lv_obj_set_style_translate_x(ptr noundef %26, i32 noundef 10, i32 noundef 0)
  %27 = load ptr, ptr %7, align 8, !tbaa !8
  %28 = load i32, ptr %5, align 4, !tbaa !3
  %29 = mul i32 8, %28
  call void @lv_obj_set_style_radius(ptr noundef %27, i32 noundef %29, i32 noundef 0)
  %30 = load ptr, ptr %3, align 8, !tbaa !8
  %31 = load i32, ptr %6, align 4, !tbaa !3
  %32 = load i32, ptr %4, align 4, !tbaa !3
  %33 = call ptr @layer_obj_create(ptr noundef %30, i32 noundef 2, i32 noundef %31, i32 noundef %32)
  store ptr %33, ptr %7, align 8, !tbaa !8
  %34 = load ptr, ptr %7, align 8, !tbaa !8
  call void @lv_obj_set_style_transform_scale(ptr noundef %34, i32 noundef 400, i32 noundef 0)
  %35 = load ptr, ptr %7, align 8, !tbaa !8
  %36 = load i32, ptr %5, align 4, !tbaa !3
  %37 = mul i32 8, %36
  call void @lv_obj_set_style_radius(ptr noundef %35, i32 noundef %37, i32 noundef 0)
  %38 = load ptr, ptr %3, align 8, !tbaa !8
  %39 = load i32, ptr %6, align 4, !tbaa !3
  %40 = load i32, ptr %4, align 4, !tbaa !3
  %41 = call ptr @layer_obj_create(ptr noundef %38, i32 noundef 4, i32 noundef %39, i32 noundef %40)
  store ptr %41, ptr %7, align 8, !tbaa !8
  %42 = load ptr, ptr %7, align 8, !tbaa !8
  call void @lv_obj_set_style_transform_rotation(ptr noundef %42, i32 noundef 300, i32 noundef 0)
  %43 = load ptr, ptr %7, align 8, !tbaa !8
  call void @lv_obj_set_style_transform_scale(ptr noundef %43, i32 noundef 400, i32 noundef 0)
  %44 = load ptr, ptr %7, align 8, !tbaa !8
  %45 = load i32, ptr %5, align 4, !tbaa !3
  %46 = mul i32 8, %45
  call void @lv_obj_set_style_radius(ptr noundef %44, i32 noundef %46, i32 noundef 0)
  %47 = load ptr, ptr %3, align 8, !tbaa !8
  %48 = load i32, ptr %6, align 4, !tbaa !3
  %49 = load i32, ptr %4, align 4, !tbaa !3
  %50 = call ptr @layer_obj_create(ptr noundef %47, i32 noundef 5, i32 noundef %48, i32 noundef %49)
  store ptr %50, ptr %7, align 8, !tbaa !8
  %51 = load ptr, ptr %7, align 8, !tbaa !8
  call void @lv_obj_set_style_transform_scale_x(ptr noundef %51, i32 noundef 400, i32 noundef 0)
  %52 = load ptr, ptr %7, align 8, !tbaa !8
  %53 = load i32, ptr %5, align 4, !tbaa !3
  %54 = mul i32 8, %53
  call void @lv_obj_set_style_radius(ptr noundef %52, i32 noundef %54, i32 noundef 0)
  %55 = load ptr, ptr %3, align 8, !tbaa !8
  %56 = load i32, ptr %6, align 4, !tbaa !3
  %57 = load i32, ptr %4, align 4, !tbaa !3
  %58 = call ptr @layer_obj_create(ptr noundef %55, i32 noundef 7, i32 noundef %56, i32 noundef %57)
  store ptr %58, ptr %7, align 8, !tbaa !8
  %59 = load ptr, ptr %7, align 8, !tbaa !8
  call void @lv_obj_set_style_transform_scale_y(ptr noundef %59, i32 noundef 400, i32 noundef 0)
  %60 = load ptr, ptr %7, align 8, !tbaa !8
  %61 = load i32, ptr %5, align 4, !tbaa !3
  %62 = mul i32 8, %61
  call void @lv_obj_set_style_radius(ptr noundef %60, i32 noundef %62, i32 noundef 0)
  %63 = load ptr, ptr %3, align 8, !tbaa !8
  %64 = load i32, ptr %6, align 4, !tbaa !3
  %65 = add nsw i32 %64, 2
  %66 = load i32, ptr %4, align 4, !tbaa !3
  %67 = call ptr @layer_obj_create(ptr noundef %63, i32 noundef 0, i32 noundef %65, i32 noundef %66)
  store ptr %67, ptr %7, align 8, !tbaa !8
  %68 = load ptr, ptr %7, align 8, !tbaa !8
  call void @lv_obj_set_style_transform_rotation(ptr noundef %68, i32 noundef 300, i32 noundef 0)
  %69 = load ptr, ptr %7, align 8, !tbaa !8
  call void @lv_obj_set_style_transform_scale_x(ptr noundef %69, i32 noundef 400, i32 noundef 0)
  %70 = load ptr, ptr %7, align 8, !tbaa !8
  call void @lv_obj_set_style_translate_x(ptr noundef %70, i32 noundef 10, i32 noundef 0)
  %71 = load ptr, ptr %7, align 8, !tbaa !8
  %72 = load i32, ptr %5, align 4, !tbaa !3
  %73 = mul i32 8, %72
  call void @lv_obj_set_style_radius(ptr noundef %71, i32 noundef %73, i32 noundef 0)
  %74 = load ptr, ptr %3, align 8, !tbaa !8
  %75 = load i32, ptr %6, align 4, !tbaa !3
  %76 = add nsw i32 %75, 2
  %77 = load i32, ptr %4, align 4, !tbaa !3
  %78 = call ptr @layer_obj_create(ptr noundef %74, i32 noundef 2, i32 noundef %76, i32 noundef %77)
  store ptr %78, ptr %7, align 8, !tbaa !8
  %79 = load ptr, ptr %7, align 8, !tbaa !8
  call void @lv_obj_set_style_transform_rotation(ptr noundef %79, i32 noundef 300, i32 noundef 0)
  %80 = load ptr, ptr %7, align 8, !tbaa !8
  call void @lv_obj_set_style_transform_scale_y(ptr noundef %80, i32 noundef 400, i32 noundef 0)
  %81 = load ptr, ptr %7, align 8, !tbaa !8
  %82 = load i32, ptr %5, align 4, !tbaa !3
  %83 = mul i32 8, %82
  call void @lv_obj_set_style_radius(ptr noundef %81, i32 noundef %83, i32 noundef 0)
  %84 = load ptr, ptr %3, align 8, !tbaa !8
  %85 = load i32, ptr %6, align 4, !tbaa !3
  %86 = add nsw i32 %85, 2
  %87 = load i32, ptr %4, align 4, !tbaa !3
  %88 = call ptr @layer_obj_create(ptr noundef %84, i32 noundef 5, i32 noundef %86, i32 noundef %87)
  store ptr %88, ptr %7, align 8, !tbaa !8
  %89 = load ptr, ptr %7, align 8, !tbaa !8
  call void @lv_obj_set_style_opa_layered(ptr noundef %89, i8 noundef zeroext 127, i32 noundef 0)
  %90 = load ptr, ptr %7, align 8, !tbaa !8
  call void @lv_obj_set_style_translate_y(ptr noundef %90, i32 noundef 10, i32 noundef 0)
  %91 = load ptr, ptr %7, align 8, !tbaa !8
  %92 = load i32, ptr %5, align 4, !tbaa !3
  %93 = mul i32 8, %92
  call void @lv_obj_set_style_radius(ptr noundef %91, i32 noundef %93, i32 noundef 0)
  %94 = load ptr, ptr %3, align 8, !tbaa !8
  %95 = load i32, ptr %6, align 4, !tbaa !3
  %96 = add nsw i32 %95, 2
  %97 = load i32, ptr %4, align 4, !tbaa !3
  %98 = call ptr @layer_obj_create(ptr noundef %94, i32 noundef 7, i32 noundef %96, i32 noundef %97)
  store ptr %98, ptr %7, align 8, !tbaa !8
  %99 = load ptr, ptr %7, align 8, !tbaa !8
  call void @lv_obj_set_style_opa_layered(ptr noundef %99, i8 noundef zeroext 127, i32 noundef 0)
  %100 = load ptr, ptr %7, align 8, !tbaa !8
  call void @lv_obj_set_style_transform_rotation(ptr noundef %100, i32 noundef 300, i32 noundef 0)
  %101 = load ptr, ptr %7, align 8, !tbaa !8
  call void @lv_obj_set_style_translate_y(ptr noundef %101, i32 noundef 10, i32 noundef 0)
  %102 = load ptr, ptr %7, align 8, !tbaa !8
  %103 = load i32, ptr %5, align 4, !tbaa !3
  %104 = mul i32 8, %103
  call void @lv_obj_set_style_radius(ptr noundef %102, i32 noundef %104, i32 noundef 0)
  call void @llvm.lifetime.end.p0(i64 8, ptr %7) #5
  call void @llvm.lifetime.end.p0(i64 4, ptr %6) #5
  br label %105

105:                                              ; preds = %11
  %106 = load i32, ptr %5, align 4, !tbaa !3
  %107 = add i32 %106, 1
  store i32 %107, ptr %5, align 4, !tbaa !3
  br label %8, !llvm.loop !86

108:                                              ; preds = %8
  call void @llvm.lifetime.end.p0(i64 4, ptr %5) #5
  ret void
}

; Function Attrs: nounwind uwtable
define internal void @layer_normal_cb(ptr noundef %0) #0 {
  %2 = alloca ptr, align 8
  store ptr %0, ptr %2, align 8, !tbaa !8
  %3 = load ptr, ptr %2, align 8, !tbaa !8
  call void @layer_core_cb(ptr noundef %3, i32 noundef 0)
  ret void
}