; Function Attrs: nounwind uwtable
define internal void @layer_normal_cb(ptr noundef %0) #0 {
  br label %2

2:                                                ; preds = %2, %1
  %3 = phi i1 [ true, %1 ], [ false, %2 ]
  %.069.i = phi i32 [ 0, %1 ], [ 1, %2 ]
  %4 = shl nuw nsw i32 %.069.i, 2
  %5 = tail call fastcc ptr @layer_obj_create(ptr noundef %0, i32 noundef 0, i32 noundef %4)
  %6 = shl nuw nsw i32 %.069.i, 3
  tail call void @lv_obj_set_style_radius(ptr noundef %5, i32 noundef %6, i32 noundef 0) #6
  %7 = tail call fastcc ptr @layer_obj_create(ptr noundef %0, i32 noundef 1, i32 noundef %4)
  tail call void @lv_obj_set_style_transform_rotation(ptr noundef %7, i32 noundef 300, i32 noundef 0) #6
  tail call void @lv_obj_set_style_translate_x(ptr noundef %7, i32 noundef 10, i32 noundef 0) #6
  tail call void @lv_obj_set_style_radius(ptr noundef %7, i32 noundef %6, i32 noundef 0) #6
  %8 = tail call fastcc ptr @layer_obj_create(ptr noundef %0, i32 noundef 2, i32 noundef %4)
  tail call void @lv_obj_set_style_transform_scale_x(ptr noundef %8, i32 noundef 400, i32 noundef 0) #6
  tail call void @lv_obj_set_style_transform_scale_y(ptr noundef %8, i32 noundef 400, i32 noundef 0) #6
  tail call void @lv_obj_set_style_radius(ptr noundef %8, i32 noundef %6, i32 noundef 0) #6
  %9 = tail call fastcc ptr @layer_obj_create(ptr noundef %0, i32 noundef 4, i32 noundef %4)
  tail call void @lv_obj_set_style_transform_rotation(ptr noundef %9, i32 noundef 300, i32 noundef 0) #6
  tail call void @lv_obj_set_style_transform_scale_x(ptr noundef %9, i32 noundef 400, i32 noundef 0) #6
  tail call void @lv_obj_set_style_transform_scale_y(ptr noundef %9, i32 noundef 400, i32 noundef 0) #6
  tail call void @lv_obj_set_style_radius(ptr noundef %9, i32 noundef %6, i32 noundef 0) #6
  %10 = tail call fastcc ptr @layer_obj_create(ptr noundef %0, i32 noundef 5, i32 noundef %4)
  tail call void @lv_obj_set_style_transform_scale_x(ptr noundef %10, i32 noundef 400, i32 noundef 0) #6
  tail call void @lv_obj_set_style_radius(ptr noundef %10, i32 noundef %6, i32 noundef 0) #6
  %11 = tail call fastcc ptr @layer_obj_create(ptr noundef %0, i32 noundef 7, i32 noundef %4)
  tail call void @lv_obj_set_style_transform_scale_y(ptr noundef %11, i32 noundef 400, i32 noundef 0) #6
  tail call void @lv_obj_set_style_radius(ptr noundef %11, i32 noundef %6, i32 noundef 0) #6
  %12 = or disjoint i32 %4, 2
  %13 = tail call fastcc ptr @layer_obj_create(ptr noundef %0, i32 noundef 0, i32 noundef %12)
  tail call void @lv_obj_set_style_transform_rotation(ptr noundef %13, i32 noundef 300, i32 noundef 0) #6
  tail call void @lv_obj_set_style_transform_scale_x(ptr noundef %13, i32 noundef 400, i32 noundef 0) #6
  tail call void @lv_obj_set_style_translate_x(ptr noundef %13, i32 noundef 10, i32 noundef 0) #6
  tail call void @lv_obj_set_style_radius(ptr noundef %13, i32 noundef %6, i32 noundef 0) #6
  %14 = tail call fastcc ptr @layer_obj_create(ptr noundef %0, i32 noundef 2, i32 noundef %12)
  tail call void @lv_obj_set_style_transform_rotation(ptr noundef %14, i32 noundef 300, i32 noundef 0) #6
  tail call void @lv_obj_set_style_transform_scale_y(ptr noundef %14, i32 noundef 400, i32 noundef 0) #6
  tail call void @lv_obj_set_style_radius(ptr noundef %14, i32 noundef %6, i32 noundef 0) #6
  %15 = tail call fastcc ptr @layer_obj_create(ptr noundef %0, i32 noundef 5, i32 noundef %12)
  tail call void @lv_obj_set_style_opa_layered(ptr noundef %15, i8 noundef zeroext 127, i32 noundef 0) #6
  tail call void @lv_obj_set_style_translate_y(ptr noundef %15, i32 noundef 10, i32 noundef 0) #6
  tail call void @lv_obj_set_style_radius(ptr noundef %15, i32 noundef %6, i32 noundef 0) #6
  %16 = tail call fastcc ptr @layer_obj_create(ptr noundef %0, i32 noundef 7, i32 noundef %12)
  tail call void @lv_obj_set_style_opa_layered(ptr noundef %16, i8 noundef zeroext 127, i32 noundef 0) #6
  tail call void @lv_obj_set_style_transform_rotation(ptr noundef %16, i32 noundef 300, i32 noundef 0) #6
  tail call void @lv_obj_set_style_translate_y(ptr noundef %16, i32 noundef 10, i32 noundef 0) #6
  tail call void @lv_obj_set_style_radius(ptr noundef %16, i32 noundef %6, i32 noundef 0) #6
  br i1 %3, label %2, label %layer_core_cb.exit, !llvm.loop !44

layer_core_cb.exit:                               ; preds = %2
  ret void
}